; Function Attrs: mustprogress nounwind uwtable
define hidden noundef range(i32 0, 3) i32 @_ZNK5clang6driver10toolchains5MachO26getDefaultUnwindTableLevelERKN4llvm3opt7ArgListE(ptr noundef nonnull align 8 dereferenceable(2212) %0, ptr noundef nonnull align 8 dereferenceable(176) %1) unnamed_addr #0 align 2 {
  %3 = getelementptr inbounds i8, ptr %0, i64 48
  %4 = load i32, ptr %3, align 8
  %5 = icmp eq i32 %4, 38
  br i1 %5, label %.thread.thread, label %6

6:                                                ; preds = %2
  %7 = load ptr, ptr %0, align 8
  %8 = getelementptr inbounds i8, ptr %7, i64 456
  %9 = load ptr, ptr %8, align 8
  %10 = tail call noundef i32 %9(ptr noundef nonnull align 8 dereferenceable(2212) %0, ptr noundef nonnull align 8 dereferenceable(176) %1) #20
  %.not = icmp eq i32 %10, 2
  br i1 %.not, label %.thread.thread, label %11

11:                                               ; preds = %6
  %12 = tail call noundef zeroext i1 @_ZNK4llvm3opt7ArgList7hasFlagENS0_12OptSpecifierES2_b(ptr noundef nonnull align 8 dereferenceable(176) %1, i32 650, i32 1092, i1 noundef zeroext true) #20
  br i1 %12, label %13, label %.thread.thread

13:                                               ; preds = %11
  %.pr = load i32, ptr %3, align 8
  %.pr.fr = freeze i32 %.pr
  %14 = icmp eq i32 %.pr.fr, 3
  br i1 %14, label %.thread.thread, label %.thread

.thread:                                          ; preds = %13
  %15 = icmp eq i32 %.pr.fr, 5
  %spec.select = select i1 %15, i32 1, i32 2
  br label %.thread.thread

.thread.thread:                                   ; preds = %.thread, %2, %6, %11, %13
  %.0 = phi i32 [ 1, %13 ], [ 0, %11 ], [ 0, %6 ], [ 2, %2 ], [ %spec.select, %.thread ]
  ret i32 %.0
}